; Function Attrs: mustprogress nounwind uwtable
define hidden void @_ZN16G1YoungCollector24calculate_collection_setEP10G1EvacInfod(ptr nocapture noundef nonnull readonly align 8 dereferenceable(104) %0, ptr nocapture noundef writeonly %1, double noundef %2) local_unnamed_addr #0 align 2 {
  %4 = alloca %class.G1PrintCollectionSetClosure, align 8
  %5 = load ptr, ptr %0, align 8
  %6 = getelementptr inbounds i8, ptr %5, i64 624
  %7 = load ptr, ptr %6, align 8
  tail call void @_ZN11G1Allocator29release_mutator_alloc_regionsEv(ptr noundef nonnull align 8 dereferenceable(120) %7) #18
  %8 = load ptr, ptr %0, align 8
  %9 = getelementptr inbounds i8, ptr %8, i64 1080
  %10 = getelementptr inbounds i8, ptr %8, i64 1016
  tail call void @_ZN15G1CollectionSet31finalize_initial_collection_setEdP17G1SurvivorRegions(ptr noundef nonnull align 8 dereferenceable(160) %9, double noundef %2, ptr noundef nonnull %10) #18
  %11 = load ptr, ptr %0, align 8
  %12 = getelementptr inbounds i8, ptr %11, i64 1184
  %13 = load i32, ptr %12, align 8
  %14 = getelementptr inbounds i8, ptr %11, i64 1188
  %15 = load i32, ptr %14, align 4
  %16 = add i32 %15, %13
  %17 = getelementptr inbounds i8, ptr %11, i64 1192
  %18 = load i32, ptr %17, align 8
  %19 = add i32 %16, %18
  %20 = getelementptr inbounds i8, ptr %11, i64 1200
  %21 = load i32, ptr %20, align 4
  %22 = add i32 %19, %21
  store i32 %22, ptr %1, align 8
  %23 = load ptr, ptr %0, align 8
  %24 = load volatile ptr, ptr getelementptr inbounds (i8, ptr @_ZN16LogTagSetMappingILN6LogTag4typeE49ELS1_128ELS1_0ELS1_0ELS1_0ELS1_0EE7_tagsetE, i64 48), align 8
  %.not = icmp eq ptr %24, null
  br i1 %.not, label %30, label %25

25:                                               ; preds = %3
  %26 = getelementptr inbounds i8, ptr %4, i64 8
  store i8 1, ptr %26, align 8
  store ptr getelementptr inbounds inrange(-16, 8) (i8, ptr @_ZTV27G1PrintCollectionSetClosure, i64 16), ptr %4, align 8
  %27 = getelementptr inbounds i8, ptr %23, i64 1080
  call void @_ZNK15G1CollectionSet7iterateEP19G1HeapRegionClosure(ptr noundef nonnull align 8 dereferenceable(160) %27, ptr noundef nonnull %4) #18
  %28 = load ptr, ptr %0, align 8
  %29 = getelementptr inbounds i8, ptr %28, i64 1080
  call void @_ZNK15G1CollectionSet16iterate_optionalEP19G1HeapRegionClosure(ptr noundef nonnull align 8 dereferenceable(160) %29, ptr noundef nonnull %4) #18
  br label %30

30:                                               ; preds = %25, %3
  ret void
}